target datalayout = "e-m:e-p270:32:32-p271:32:32-p272:64:64-i64:64-i128:128-f80:128-n8:16:32:64-S128"
target triple = "x86_64-pc-linux-gnu"

%class.mpz = type { i32, i8, ptr }
%class.svector.1 = type { %class.vector.2 }
%class.vector.2 = type { ptr }
%"class.upolynomial::core_manager" = type { ptr, %class.mpzzp_manager, %class.svector.1, %class.svector.1, %class.svector.1, %class.svector.1, %class.svector.1, %class.svector.1, %class.svector.1, [6 x %class.svector.1], %class.svector.1, %class.svector.1, %class.svector.1 }
%class.mpzzp_manager = type { ptr, i8, %class.mpz, %class.mpz, %class.mpz, i8, %class.mpz, %class.mpz, %class.mpz, %class.mpz }
%"class.std::ios_base" = type { ptr, i64, i64, i32, i32, i32, ptr, %"struct.std::ios_base::_Words", [8 x %"struct.std::ios_base::_Words"], i32, ptr, %"class.std::locale" }
%"struct.std::ios_base::_Words" = type { ptr, i64 }
%"class.std::locale" = type { ptr }

@.str.6 = private unnamed_addr constant [2 x i8] c" \00", align 1
@.str.8 = private unnamed_addr constant [2 x i8] c"0\00", align 1
@.str.9 = private unnamed_addr constant [3 x i8] c"(+\00", align 1
@.str.10 = private unnamed_addr constant [2 x i8] c")\00", align 1

; Function Attrs: mustprogress nounwind uwtable
define linkonce_odr hidden noundef i32 @_ZN11mpz_managerILb0EE4signERK3mpz(ptr noundef nonnull align 8 dereferenceable(16) %0) #5 comdat align 2 {
  %2 = alloca ptr, align 8
  store ptr %0, ptr %2, align 8, !tbaa !26
  %3 = load ptr, ptr %2, align 8, !tbaa !26
  %4 = getelementptr inbounds nuw %class.mpz, ptr %3, i32 0, i32 0
  %5 = load i32, ptr %4, align 8, !tbaa !28
  ret i32 %5
}

; Function Attrs: inlinehint mustprogress nounwind uwtable
define linkonce_odr noundef i32 @_ZStorSt12_Ios_IostateS_(i32 noundef %0, i32 noundef %1) #10 comdat {
  %3 = alloca i32, align 4
  %4 = alloca i32, align 4
  store i32 %0, ptr %3, align 4, !tbaa !293
  store i32 %1, ptr %4, align 4, !tbaa !293
  %5 = load i32, ptr %3, align 4, !tbaa !293
  %6 = load i32, ptr %4, align 4, !tbaa !293
  %7 = or i32 %5, %6
  ret i32 %7
}

; Function Attrs: mustprogress nounwind uwtable
define available_externally noundef i32 @_ZNKSt9basic_iosIcSt11char_traitsIcEE7rdstateEv(ptr noundef nonnull align 8 dereferenceable(264) %0) #5 align 2 {
  %2 = alloca ptr, align 8
  store ptr %0, ptr %2, align 8, !tbaa !291
  %3 = load ptr, ptr %2, align 8
  %4 = getelementptr inbounds nuw %"class.std::ios_base", ptr %3, i32 0, i32 5
  %5 = load i32, ptr %4, align 8, !tbaa !295
  ret i32 %5
}

; Function Attrs: mustprogress uwtable
define linkonce_odr hidden noundef zeroext i1 @_ZN11mpz_managerILb0EE7is_zeroERK3mpz(ptr noundef nonnull align 8 dereferenceable(16) %0) #4 comdat align 2 {
  %2 = alloca ptr, align 8
  store ptr %0, ptr %2, align 8, !tbaa !26
  %3 = load ptr, ptr %2, align 8, !tbaa !26
  %4 = call noundef i32 @_ZN11mpz_managerILb0EE4signERK3mpz(ptr noundef nonnull align 8 dereferenceable(16) %3)
  %5 = icmp eq i32 %4, 0
  ret i1 %5
}

; Function Attrs: mustprogress nounwind uwtable
define linkonce_odr hidden noundef i64 @_ZNSt11char_traitsIcE6lengthEPKc(ptr noundef %0) #5 comdat align 2 {
  %2 = alloca ptr, align 8
  store ptr %0, ptr %2, align 8, !tbaa !53
  %3 = load ptr, ptr %2, align 8, !tbaa !53
  %4 = call i64 @strlen(ptr noundef %3) #3
  ret i64 %4
}

; Function Attrs: mustprogress uwtable
define available_externally void @_ZNSt9basic_iosIcSt11char_traitsIcEE8setstateESt12_Ios_Iostate(ptr noundef nonnull align 8 dereferenceable(264) %0, i32 noundef %1) #4 align 2 {
  %3 = alloca ptr, align 8
  %4 = alloca i32, align 4
  store ptr %0, ptr %3, align 8, !tbaa !291
  store i32 %1, ptr %4, align 4, !tbaa !293
  %5 = load ptr, ptr %3, align 8
  %6 = call noundef i32 @_ZNKSt9basic_iosIcSt11char_traitsIcEE7rdstateEv(ptr noundef nonnull align 8 dereferenceable(264) %5)
  %7 = load i32, ptr %4, align 4, !tbaa !293
  %8 = call noundef i32 @_ZStorSt12_Ios_IostateS_(i32 noundef %6, i32 noundef %7)
  call void @_ZNSt9basic_iosIcSt11char_traitsIcEE5clearESt12_Ios_Iostate(ptr noundef nonnull align 8 dereferenceable(264) %5, i32 noundef %8)
  ret void
}

; Function Attrs: mustprogress uwtable
define linkonce_odr hidden noundef zeroext i1 @_ZN13mpzzp_manager7is_zeroERK3mpz(ptr noundef nonnull align 8 dereferenceable(136) %0, ptr noundef nonnull align 8 dereferenceable(16) %1) #4 comdat align 2 {
  %3 = alloca ptr, align 8
  %4 = alloca ptr, align 8
  store ptr %0, ptr %3, align 8, !tbaa !31
  store ptr %1, ptr %4, align 8, !tbaa !26
  %5 = load ptr, ptr %4, align 8, !tbaa !26
  %6 = call noundef zeroext i1 @_ZN11mpz_managerILb0EE7is_zeroERK3mpz(ptr noundef nonnull align 8 dereferenceable(16) %5)
  ret i1 %6
}

; Function Attrs: mustprogress nounwind uwtable
define linkonce_odr hidden noundef nonnull align 8 dereferenceable(136) ptr @_ZNK11upolynomial12core_manager1mEv(ptr noundef nonnull align 8 dereferenceable(272) %0) #5 comdat align 2 {
  %2 = alloca ptr, align 8
  store ptr %0, ptr %2, align 8, !tbaa !8
  %3 = load ptr, ptr %2, align 8
  %4 = getelementptr inbounds nuw %"class.upolynomial::core_manager", ptr %3, i32 0, i32 1
  ret ptr %4
}

; Function Attrs: inlinehint mustprogress uwtable
define available_externally noundef nonnull align 8 dereferenceable(8) ptr @_ZStlsISt11char_traitsIcEERSt13basic_ostreamIcT_ES5_PKc(ptr noundef nonnull align 8 dereferenceable(8) %0, ptr noundef %1) #9 {
  %3 = alloca ptr, align 8
  %4 = alloca ptr, align 8
  store ptr %0, ptr %3, align 8, !tbaa !48
  store ptr %1, ptr %4, align 8, !tbaa !53
  %5 = load ptr, ptr %4, align 8, !tbaa !53
  %6 = icmp ne ptr %5, null
  br i1 %6, label %13, label %7

7:                                                ; preds = %2
  %8 = load ptr, ptr %3, align 8, !tbaa !48
  %9 = load ptr, ptr %8, align 8, !tbaa !55
  %10 = getelementptr i8, ptr %9, i64 -24
  %11 = load i64, ptr %10, align 8
  %12 = getelementptr inbounds i8, ptr %8, i64 %11
  call void @_ZNSt9basic_iosIcSt11char_traitsIcEE8setstateESt12_Ios_Iostate(ptr noundef nonnull align 8 dereferenceable(264) %12, i32 noundef 1)
  br label %19

13:                                               ; preds = %2
  %14 = load ptr, ptr %3, align 8, !tbaa !48
  %15 = load ptr, ptr %4, align 8, !tbaa !53
  %16 = load ptr, ptr %4, align 8, !tbaa !53
  %17 = call noundef i64 @_ZNSt11char_traitsIcE6lengthEPKc(ptr noundef %16)
  %18 = call noundef nonnull align 8 dereferenceable(8) ptr @_ZSt16__ostream_insertIcSt11char_traitsIcEERSt13basic_ostreamIT_T0_ES6_PKS3_l(ptr noundef nonnull align 8 dereferenceable(8) %14, ptr noundef %15, i64 noundef %17)
  br label %19

19:                                               ; preds = %13, %7
  %20 = load ptr, ptr %3, align 8, !tbaa !48
  ret ptr %20
}

; Function Attrs: mustprogress uwtable
define hidden noundef nonnull align 8 dereferenceable(8) ptr @_ZNK11upolynomial12core_manager12display_smt2ERSojPK3mpzPKc(ptr noundef nonnull align 8 dereferenceable(272) %0, ptr noundef nonnull align 8 dereferenceable(8) %1, i32 noundef %2, ptr noundef %3, ptr noundef %4) #4 align 2 {
  %6 = alloca ptr, align 8
  %7 = alloca ptr, align 8
  %8 = alloca ptr, align 8
  %9 = alloca i32, align 4
  %10 = alloca ptr, align 8
  %11 = alloca ptr, align 8
  %12 = alloca i32, align 4
  %13 = alloca i32, align 4
  %14 = alloca i32, align 4
  %15 = alloca i32, align 4
  store ptr %0, ptr %7, align 8, !tbaa !8
  store ptr %1, ptr %8, align 8, !tbaa !48
  store i32 %2, ptr %9, align 4, !tbaa !33
  store ptr %3, ptr %10, align 8, !tbaa !26
  store ptr %4, ptr %11, align 8, !tbaa !53
  %16 = load ptr, ptr %7, align 8
  %17 = load i32, ptr %9, align 4, !tbaa !33
  %18 = icmp eq i32 %17, 0
  br i1 %18, label %19, label %23

19:                                               ; preds = %5
  %20 = load ptr, ptr %8, align 8, !tbaa !48
  %21 = call noundef nonnull align 8 dereferenceable(8) ptr @_ZStlsISt11char_traitsIcEERSt13basic_ostreamIcT_ES5_PKc(ptr noundef nonnull align 8 dereferenceable(8) %20, ptr noundef @.str.8)
  %22 = load ptr, ptr %8, align 8, !tbaa !48
  store ptr %22, ptr %6, align 8
  br label %96

23:                                               ; preds = %5
  %24 = load i32, ptr %9, align 4, !tbaa !33
  %25 = icmp eq i32 %24, 1
  br i1 %25, label %26, label %32

26:                                               ; preds = %23
  %27 = load ptr, ptr %8, align 8, !tbaa !48
  %28 = call noundef nonnull align 8 dereferenceable(136) ptr @_ZNK11upolynomial12core_manager1mEv(ptr noundef nonnull align 8 dereferenceable(272) %16)
  %29 = load ptr, ptr %10, align 8, !tbaa !26
  %30 = getelementptr inbounds %class.mpz, ptr %29, i64 0
  call void @_ZN11upolynomialL20display_smt2_mumeralERSoR13mpzzp_managerRK3mpz(ptr noundef nonnull align 8 dereferenceable(8) %27, ptr noundef nonnull align 8 dereferenceable(136) %28, ptr noundef nonnull align 8 dereferenceable(16) %30)
  %31 = load ptr, ptr %8, align 8, !tbaa !48
  store ptr %31, ptr %6, align 8
  br label %96

32:                                               ; preds = %23
  call void @llvm.lifetime.start.p0(i64 4, ptr %12) #3
  store i32 -1, ptr %12, align 4, !tbaa !33
  call void @llvm.lifetime.start.p0(i64 4, ptr %13) #3
  store i32 0, ptr %13, align 4, !tbaa !33
  call void @llvm.lifetime.start.p0(i64 4, ptr %14) #3
  store i32 0, ptr %14, align 4, !tbaa !33
  br label %33

33:                                               ; preds = %50, %32
  %34 = load i32, ptr %14, align 4, !tbaa !33
  %35 = load i32, ptr %9, align 4, !tbaa !33
  %36 = icmp ult i32 %34, %35
  br i1 %36, label %38, label %37

37:                                               ; preds = %33
  call void @llvm.lifetime.end.p0(i64 4, ptr %14) #3
  br label %53

38:                                               ; preds = %33
  %39 = call noundef nonnull align 8 dereferenceable(136) ptr @_ZNK11upolynomial12core_manager1mEv(ptr noundef nonnull align 8 dereferenceable(272) %16)
  %40 = load ptr, ptr %10, align 8, !tbaa !26
  %41 = load i32, ptr %14, align 4, !tbaa !33
  %42 = zext i32 %41 to i64
  %43 = getelementptr inbounds nuw %class.mpz, ptr %40, i64 %42
  %44 = call noundef zeroext i1 @_ZN13mpzzp_manager7is_zeroERK3mpz(ptr noundef nonnull align 8 dereferenceable(136) %39, ptr noundef nonnull align 8 dereferenceable(16) %43)
  br i1 %44, label %45, label %46

45:                                               ; preds = %38
  br label %50

46:                                               ; preds = %38
  %47 = load i32, ptr %14, align 4, !tbaa !33
  store i32 %47, ptr %12, align 4, !tbaa !33
  %48 = load i32, ptr %13, align 4, !tbaa !33
  %49 = add i32 %48, 1
  store i32 %49, ptr %13, align 4, !tbaa !33
  br label %50

50:                                               ; preds = %46, %45
  %51 = load i32, ptr %14, align 4, !tbaa !33
  %52 = add i32 %51, 1
  store i32 %52, ptr %14, align 4, !tbaa !33
  br label %33, !llvm.loop !135

53:                                               ; preds = %37
  %54 = load i32, ptr %13, align 4, !tbaa !33
  %55 = icmp eq i32 %54, 1
  br i1 %55, label %56, label %65

56:                                               ; preds = %53
  %57 = load ptr, ptr %8, align 8, !tbaa !48
  %58 = call noundef nonnull align 8 dereferenceable(136) ptr @_ZNK11upolynomial12core_manager1mEv(ptr noundef nonnull align 8 dereferenceable(272) %16)
  %59 = load ptr, ptr %10, align 8, !tbaa !26
  %60 = load i32, ptr %12, align 4, !tbaa !33
  %61 = zext i32 %60 to i64
  %62 = getelementptr inbounds nuw %class.mpz, ptr %59, i64 %61
  %63 = load i32, ptr %12, align 4, !tbaa !33
  %64 = load ptr, ptr %11, align 8, !tbaa !53
  call void @_ZN11upolynomialL21display_smt2_monomialERSoR13mpzzp_managerRK3mpzjPKc(ptr noundef nonnull align 8 dereferenceable(8) %57, ptr noundef nonnull align 8 dereferenceable(136) %58, ptr noundef nonnull align 8 dereferenceable(16) %62, i32 noundef %63, ptr noundef %64)
  br label %65

65:                                               ; preds = %56, %53
  %66 = load ptr, ptr %8, align 8, !tbaa !48
  %67 = call noundef nonnull align 8 dereferenceable(8) ptr @_ZStlsISt11char_traitsIcEERSt13basic_ostreamIcT_ES5_PKc(ptr noundef nonnull align 8 dereferenceable(8) %66, ptr noundef @.str.9)
  call void @llvm.lifetime.start.p0(i64 4, ptr %15) #3
  %68 = load i32, ptr %9, align 4, !tbaa !33
  store i32 %68, ptr %15, align 4, !tbaa !33
  br label %69

69:                                               ; preds = %92, %65
  %70 = load i32, ptr %15, align 4, !tbaa !33
  %71 = icmp ugt i32 %70, 0
  br i1 %71, label %72, label %93

72:                                               ; preds = %69
  %73 = load i32, ptr %15, align 4, !tbaa !33
  %74 = add i32 %73, -1
  store i32 %74, ptr %15, align 4, !tbaa !33
  %75 = call noundef nonnull align 8 dereferenceable(136) ptr @_ZNK11upolynomial12core_manager1mEv(ptr noundef nonnull align 8 dereferenceable(272) %16)
  %76 = load ptr, ptr %10, align 8, !tbaa !26
  %77 = load i32, ptr %15, align 4, !tbaa !33
  %78 = zext i32 %77 to i64
  %79 = getelementptr inbounds nuw %class.mpz, ptr %76, i64 %78
  %80 = call noundef zeroext i1 @_ZN13mpzzp_manager7is_zeroERK3mpz(ptr noundef nonnull align 8 dereferenceable(136) %75, ptr noundef nonnull align 8 dereferenceable(16) %79)
  br i1 %80, label %92, label %81

81:                                               ; preds = %72
  %82 = load ptr, ptr %8, align 8, !tbaa !48
  %83 = call noundef nonnull align 8 dereferenceable(8) ptr @_ZStlsISt11char_traitsIcEERSt13basic_ostreamIcT_ES5_PKc(ptr noundef nonnull align 8 dereferenceable(8) %82, ptr noundef @.str.6)
  %84 = load ptr, ptr %8, align 8, !tbaa !48
  %85 = call noundef nonnull align 8 dereferenceable(136) ptr @_ZNK11upolynomial12core_manager1mEv(ptr noundef nonnull align 8 dereferenceable(272) %16)
  %86 = load ptr, ptr %10, align 8, !tbaa !26
  %87 = load i32, ptr %15, align 4, !tbaa !33
  %88 = zext i32 %87 to i64
  %89 = getelementptr inbounds nuw %class.mpz, ptr %86, i64 %88
  %90 = load i32, ptr %15, align 4, !tbaa !33
  %91 = load ptr, ptr %11, align 8, !tbaa !53
  call void @_ZN11upolynomialL21display_smt2_monomialERSoR13mpzzp_managerRK3mpzjPKc(ptr noundef nonnull align 8 dereferenceable(8) %84, ptr noundef nonnull align 8 dereferenceable(136) %85, ptr noundef nonnull align 8 dereferenceable(16) %89, i32 noundef %90, ptr noundef %91)
  br label %92

92:                                               ; preds = %81, %72
  br label %69, !llvm.loop !136

93:                                               ; preds = %69
  %94 = load ptr, ptr %8, align 8, !tbaa !48
  %95 = call noundef nonnull align 8 dereferenceable(8) ptr @_ZStlsISt11char_traitsIcEERSt13basic_ostreamIcT_ES5_PKc(ptr noundef nonnull align 8 dereferenceable(8) %94, ptr noundef @.str.10)
  store ptr %95, ptr %6, align 8
  call void @llvm.lifetime.end.p0(i64 4, ptr %15) #3
  call void @llvm.lifetime.end.p0(i64 4, ptr %13) #3
  call void @llvm.lifetime.end.p0(i64 4, ptr %12) #3
  br label %96

96:                                               ; preds = %93, %26, %19
  %97 = load ptr, ptr %6, align 8
  ret ptr %97
}