; Function Attrs: mustprogress uwtable
define hidden noundef nonnull align 8 dereferenceable(8) ptr @_ZNK11upolynomial12core_manager12display_smt2ERSojPK3mpzPKc(ptr noundef nonnull align 8 dereferenceable(272) %0, ptr noundef nonnull returned align 8 dereferenceable(8) %1, i32 noundef %2, ptr noundef %3, ptr noundef %4) local_unnamed_addr #3 align 2 {
  switch i32 %2, label %.lr.ph.preheader [
    i32 0, label %6
    i32 1, label %8
  ]

.lr.ph.preheader:                                 ; preds = %5
  %wide.trip.count = zext i32 %2 to i64
  br label %.lr.ph

6:                                                ; preds = %5
  %7 = tail call noundef nonnull align 8 dereferenceable(8) ptr @_ZSt16__ostream_insertIcSt11char_traitsIcEERSt13basic_ostreamIT_T0_ES6_PKS3_l(ptr noundef nonnull align 8 dereferenceable(8) %1, ptr noundef nonnull @.str.8, i64 noundef 1)
  br label %32

8:                                                ; preds = %5
  %9 = getelementptr inbounds nuw i8, ptr %0, i64 8
  tail call fastcc void @_ZN11upolynomialL20display_smt2_mumeralERSoR13mpzzp_managerRK3mpz(ptr noundef nonnull align 8 dereferenceable(8) %1, ptr noundef nonnull align 8 dereferenceable(136) %9, ptr noundef nonnull align 8 dereferenceable(16) %3)
  br label %32

._crit_edge:                                      ; preds = %.lr.ph
  %10 = icmp eq i32 %spec.select40, 1
  br i1 %10, label %16, label %.lr.ph48

.lr.ph:                                           ; preds = %.lr.ph.preheader, %.lr.ph
  %indvars.iv = phi i64 [ 0, %.lr.ph.preheader ], [ %indvars.iv.next, %.lr.ph ]
  %.03542 = phi i32 [ 0, %.lr.ph.preheader ], [ %spec.select40, %.lr.ph ]
  %.03641 = phi i32 [ -1, %.lr.ph.preheader ], [ %spec.select, %.lr.ph ]
  %11 = getelementptr inbounds nuw %class.mpz, ptr %3, i64 %indvars.iv
  %12 = load i32, ptr %11, align 8, !tbaa !8
  %13 = icmp ne i32 %12, 0
  %14 = trunc nuw i64 %indvars.iv to i32
  %spec.select = select i1 %13, i32 %14, i32 %.03641
  %15 = zext i1 %13 to i32
  %spec.select40 = add i32 %.03542, %15
  %indvars.iv.next = add nuw nsw i64 %indvars.iv, 1
  %exitcond.not = icmp eq i64 %indvars.iv.next, %wide.trip.count
  br i1 %exitcond.not, label %._crit_edge, label %.lr.ph, !llvm.loop !137

16:                                               ; preds = %._crit_edge
  %17 = getelementptr inbounds nuw i8, ptr %0, i64 8
  %18 = zext i32 %spec.select to i64
  %19 = getelementptr inbounds nuw %class.mpz, ptr %3, i64 %18
  tail call fastcc void @_ZN11upolynomialL21display_smt2_monomialERSoR13mpzzp_managerRK3mpzjPKc(ptr noundef nonnull align 8 dereferenceable(8) %1, ptr noundef nonnull align 8 dereferenceable(136) %17, ptr noundef nonnull align 8 dereferenceable(16) %19, i32 noundef %spec.select, ptr noundef %4)
  br label %.lr.ph48

.lr.ph48:                                         ; preds = %._crit_edge, %16
  %20 = tail call noundef nonnull align 8 dereferenceable(8) ptr @_ZSt16__ostream_insertIcSt11char_traitsIcEERSt13basic_ostreamIT_T0_ES6_PKS3_l(ptr noundef nonnull align 8 dereferenceable(8) %1, ptr noundef nonnull @.str.9, i64 noundef 2)
  %21 = getelementptr inbounds nuw i8, ptr %0, i64 8
  %22 = zext i32 %2 to i64
  br label %23

23:                                               ; preds = %.lr.ph48, %30
  %indvars.iv52 = phi i64 [ %22, %.lr.ph48 ], [ %indvars.iv.next53, %30 ]
  %indvars.iv.next53 = add nsw i64 %indvars.iv52, -1
  %indvars = trunc i64 %indvars.iv.next53 to i32
  %24 = and i64 %indvars.iv.next53, 4294967295
  %25 = getelementptr inbounds nuw %class.mpz, ptr %3, i64 %24
  %26 = load i32, ptr %25, align 8, !tbaa !8
  %27 = icmp eq i32 %26, 0
  br i1 %27, label %30, label %28

28:                                               ; preds = %23
  %29 = tail call noundef nonnull align 8 dereferenceable(8) ptr @_ZSt16__ostream_insertIcSt11char_traitsIcEERSt13basic_ostreamIT_T0_ES6_PKS3_l(ptr noundef nonnull align 8 dereferenceable(8) %1, ptr noundef nonnull @.str.6, i64 noundef 1)
  tail call fastcc void @_ZN11upolynomialL21display_smt2_monomialERSoR13mpzzp_managerRK3mpzjPKc(ptr noundef nonnull align 8 dereferenceable(8) %1, ptr noundef nonnull align 8 dereferenceable(136) %21, ptr noundef nonnull align 8 dereferenceable(16) %25, i32 noundef %indvars, ptr noundef %4)
  br label %30

30:                                               ; preds = %28, %23
  %.not = icmp eq i32 %indvars, 0
  br i1 %.not, label %._crit_edge49, label %23, !llvm.loop !138

._crit_edge49:                                    ; preds = %30
  %31 = tail call noundef nonnull align 8 dereferenceable(8) ptr @_ZSt16__ostream_insertIcSt11char_traitsIcEERSt13basic_ostreamIT_T0_ES6_PKS3_l(ptr noundef nonnull align 8 dereferenceable(8) %1, ptr noundef nonnull @.str.10, i64 noundef 1)
  br label %32

32:                                               ; preds = %._crit_edge49, %8, %6
  ret ptr %1
}